; Function Attrs: mustprogress nofree norecurse nosync nounwind willreturn memory(read, argmem: readwrite, inaccessiblemem: none) uwtable
define dso_local noundef zeroext i1 @_ZNK4absl13cord_internal12CordRepBtree6IsFlatEPSt17basic_string_viewIcSt11char_traitsIcEE(ptr noundef nonnull readonly align 8 captures(none) dereferenceable(64) %0, ptr noundef writeonly captures(address_is_null) %1) local_unnamed_addr #8 align 2 {
  %3 = getelementptr inbounds nuw i8, ptr %0, i64 13
  %4 = load i8, ptr %3, align 1, !tbaa !4
  %5 = icmp eq i8 %4, 0
  br i1 %5, label %6, label %37

6:                                                ; preds = %2
  %7 = getelementptr inbounds nuw i8, ptr %0, i64 15
  %8 = load i8, ptr %7, align 1, !tbaa !4
  %9 = zext i8 %8 to i64
  %10 = getelementptr inbounds nuw i8, ptr %0, i64 14
  %11 = load i8, ptr %10, align 2, !tbaa !4
  %12 = zext i8 %11 to i64
  %13 = sub nsw i64 %9, %12
  %14 = icmp eq i64 %13, 1
  br i1 %14, label %15, label %37

15:                                               ; preds = %6
  %.not = icmp eq ptr %1, null
  br i1 %.not, label %37, label %16

16:                                               ; preds = %15
  %17 = getelementptr inbounds nuw i8, ptr %0, i64 16
  %18 = getelementptr inbounds nuw [6 x ptr], ptr %17, i64 0, i64 %12
  %19 = load ptr, ptr %18, align 8, !tbaa !17
  %20 = load i64, ptr %19, align 8, !tbaa !7
  %21 = getelementptr inbounds nuw i8, ptr %19, i64 12
  %22 = load i8, ptr %21, align 4, !tbaa !25
  %23 = icmp eq i8 %22, 1
  br i1 %23, label %24, label %29

24:                                               ; preds = %16
  %25 = getelementptr inbounds nuw i8, ptr %19, i64 16
  %26 = load i64, ptr %25, align 8, !tbaa !72
  %27 = getelementptr inbounds nuw i8, ptr %19, i64 24
  %28 = load ptr, ptr %27, align 8, !tbaa !74
  %.phi.trans.insert.i.i = getelementptr inbounds nuw i8, ptr %28, i64 12
  %.pre.i.i = load i8, ptr %.phi.trans.insert.i.i, align 4, !tbaa !25
  br label %29

29:                                               ; preds = %24, %16
  %30 = phi i8 [ %.pre.i.i, %24 ], [ %22, %16 ]
  %.010.i.i = phi i64 [ %26, %24 ], [ 0, %16 ]
  %.0.i.i = phi ptr [ %28, %24 ], [ %19, %16 ]
  %31 = icmp ugt i8 %30, 5
  br i1 %31, label %32, label %34

32:                                               ; preds = %29
  %33 = getelementptr inbounds nuw i8, ptr %.0.i.i, i64 13
  br label %_ZNK4absl13cord_internal12CordRepBtree4DataEm.exit

34:                                               ; preds = %29
  %35 = getelementptr inbounds nuw i8, ptr %.0.i.i, i64 16
  %36 = load ptr, ptr %35, align 8, !tbaa !75
  br label %_ZNK4absl13cord_internal12CordRepBtree4DataEm.exit

_ZNK4absl13cord_internal12CordRepBtree4DataEm.exit: ; preds = %32, %34
  %.pn.i.i = phi ptr [ %33, %32 ], [ %36, %34 ]
  %.sroa.3.0.i.i = getelementptr inbounds nuw i8, ptr %.pn.i.i, i64 %.010.i.i
  store i64 %20, ptr %1, align 8, !tbaa !79
  %.sroa.4.0..sroa_idx = getelementptr inbounds nuw i8, ptr %1, i64 8
  store ptr %.sroa.3.0.i.i, ptr %.sroa.4.0..sroa_idx, align 8, !tbaa !94
  br label %37

37:                                               ; preds = %2, %6, %15, %_ZNK4absl13cord_internal12CordRepBtree4DataEm.exit
  %.0 = phi i1 [ true, %_ZNK4absl13cord_internal12CordRepBtree4DataEm.exit ], [ true, %15 ], [ false, %6 ], [ false, %2 ]
  ret i1 %.0
}